; Function Attrs: inlinehint mustprogress nounwind uwtable
define internal void @_ZN5boost9unit_test16results_reporter12_GLOBAL__N_121results_reporter_implD0Ev(ptr noundef nonnull align 8 dereferenceable(40) %0) unnamed_addr #6 align 2 personality ptr @__gxx_personality_v0 {
  store ptr getelementptr inbounds inrange(-16, 48) (i8, ptr @_ZTVN5boost9unit_test16results_reporter12_GLOBAL__N_121results_reporter_implE, i64 16), ptr %0, align 8, !tbaa !14
  %2 = getelementptr inbounds nuw i8, ptr %0, i64 32
  %3 = load ptr, ptr %2, align 8, !tbaa !38
  %4 = icmp eq ptr %3, null
  br i1 %4, label %_ZN5boost10scoped_ptrINS_9unit_test16results_reporter6formatEED2Ev.exit.i, label %5

5:                                                ; preds = %1
  %6 = load ptr, ptr %3, align 8, !tbaa !14
  %7 = getelementptr inbounds i8, ptr %6, i64 8
  %8 = load ptr, ptr %7, align 8
  tail call void %8(ptr noundef nonnull align 8 dereferenceable(8) %3) #9
  br label %_ZN5boost10scoped_ptrINS_9unit_test16results_reporter6formatEED2Ev.exit.i

_ZN5boost10scoped_ptrINS_9unit_test16results_reporter6formatEED2Ev.exit.i: ; preds = %5, %1
  %9 = getelementptr inbounds nuw i8, ptr %0, i64 16
  %10 = load ptr, ptr %9, align 8, !tbaa !31
  %11 = icmp eq ptr %10, null
  br i1 %11, label %_ZN5boost9unit_test16results_reporter12_GLOBAL__N_121results_reporter_implD2Ev.exit, label %12

12:                                               ; preds = %_ZN5boost10scoped_ptrINS_9unit_test16results_reporter6formatEED2Ev.exit.i
  %13 = load ptr, ptr %10, align 8, !tbaa !32
  %14 = getelementptr inbounds nuw i8, ptr %10, i64 24
  %15 = load i64, ptr %14, align 8, !tbaa !30
  %16 = getelementptr inbounds nuw i8, ptr %13, i64 16
  store i64 %15, ptr %16, align 8, !tbaa !29
  %17 = getelementptr inbounds nuw i8, ptr %10, i64 16
  %18 = load i64, ptr %17, align 8, !tbaa !28
  %19 = getelementptr inbounds nuw i8, ptr %13, i64 8
  store i64 %18, ptr %19, align 8, !tbaa !27
  %20 = getelementptr inbounds nuw i8, ptr %10, i64 8
  %21 = load i32, ptr %20, align 8, !tbaa !25
  %22 = getelementptr inbounds nuw i8, ptr %13, i64 24
  store i32 %21, ptr %22, align 8, !tbaa !17
  tail call void @_ZdlPvm(ptr noundef nonnull %10, i64 noundef 32) #11
  br label %_ZN5boost9unit_test16results_reporter12_GLOBAL__N_121results_reporter_implD2Ev.exit

_ZN5boost9unit_test16results_reporter12_GLOBAL__N_121results_reporter_implD2Ev.exit: ; preds = %_ZN5boost10scoped_ptrINS_9unit_test16results_reporter6formatEED2Ev.exit.i, %12
  tail call void @_ZdlPvm(ptr noundef nonnull %0, i64 noundef 40) #11
  ret void
}